; Function Attrs: nounwind uwtable
define hidden range(i32 -1, 1) i32 @ps_delete_user(ptr readnone captures(none) %0, ptr noundef %1) #0 {
  %3 = alloca [1 x %struct._zval_struct], align 16
  %4 = alloca %struct._zval_struct, align 8
  call void @llvm.lifetime.start.p0(i64 16, ptr nonnull %3) #8
  call void @llvm.lifetime.start.p0(i64 16, ptr nonnull %4) #8
  store ptr %1, ptr %3, align 16, !tbaa !9
  %5 = getelementptr inbounds nuw i8, ptr %1, i64 4
  %6 = load i32, ptr %5, align 4, !tbaa !9
  %7 = and i32 %6, 64
  %.not = icmp eq i32 %7, 0
  br i1 %.not, label %8, label %11

8:                                                ; preds = %2
  %9 = load i32, ptr %1, align 4, !tbaa !4
  %10 = add i32 %9, 1
  store i32 %10, ptr %1, align 4, !tbaa !4
  br label %11

11:                                               ; preds = %2, %8
  %.sink = phi i32 [ 262, %8 ], [ 6, %2 ]
  %12 = getelementptr inbounds nuw i8, ptr %3, i64 8
  store i32 %.sink, ptr %12, align 8, !tbaa !9
  %13 = load i8, ptr getelementptr inbounds nuw (i8, ptr @ps_globals, i64 436), align 4, !tbaa !47, !range !58, !noundef !59
  %14 = trunc nuw i8 %13 to i1
  br i1 %14, label %15, label %17

15:                                               ; preds = %11
  store i8 0, ptr getelementptr inbounds nuw (i8, ptr @ps_globals, i64 436), align 4, !tbaa !47
  %16 = getelementptr inbounds nuw i8, ptr %4, i64 8
  store i32 0, ptr %16, align 8, !tbaa !9
  tail call void (ptr, i32, ptr, ...) @php_error_docref(ptr noundef null, i32 noundef 2, ptr noundef nonnull @.str.4) #8
  br label %ps_call_handler.exit

17:                                               ; preds = %11
  store i8 1, ptr getelementptr inbounds nuw (i8, ptr @ps_globals, i64 436), align 4, !tbaa !47
  %18 = call i32 @_call_user_function_impl(ptr noundef null, ptr noundef nonnull getelementptr inbounds nuw (i8, ptr @ps_globals, i64 256), ptr noundef nonnull %4, i32 noundef 1, ptr noundef nonnull %3, ptr noundef null) #8
  %19 = icmp eq i32 %18, -1
  br i1 %19, label %20, label %22

20:                                               ; preds = %17
  call void @zval_ptr_dtor(ptr noundef nonnull %4) #8
  %21 = getelementptr inbounds nuw i8, ptr %4, i64 8
  store i32 0, ptr %21, align 8, !tbaa !9
  br label %.lr.ph.i

22:                                               ; preds = %17
  %23 = getelementptr inbounds nuw i8, ptr %4, i64 8
  %24 = load i8, ptr %23, align 8, !tbaa !9
  %25 = icmp eq i8 %24, 0
  br i1 %25, label %26, label %.lr.ph.i

26:                                               ; preds = %22
  store i32 1, ptr %23, align 8, !tbaa !9
  br label %.lr.ph.i

.lr.ph.i:                                         ; preds = %26, %22, %20
  store i8 0, ptr getelementptr inbounds nuw (i8, ptr @ps_globals, i64 436), align 4, !tbaa !47
  call void @zval_ptr_dtor(ptr noundef nonnull %3) #8
  br label %ps_call_handler.exit

ps_call_handler.exit:                             ; preds = %.lr.ph.i, %15
  %27 = call fastcc i32 @verify_bool_return_type_userland_calls(ptr noundef %4)
  call void @zval_ptr_dtor(ptr noundef nonnull %4) #8
  call void @llvm.lifetime.end.p0(i64 16, ptr nonnull %4) #8
  call void @llvm.lifetime.end.p0(i64 16, ptr nonnull %3) #8
  ret i32 %27
}